target datalayout = "e-m:e-p270:32:32-p271:32:32-p272:64:64-i64:64-i128:128-f80:128-n8:16:32:64-S128"
target triple = "x86_64-unknown-linux-gnu"

; Function Attrs: mustprogress nounwind uwtable
define linkonce_odr void @_ZN5arrow2io8ReadableD2Ev(ptr noundef nonnull align 8 dereferenceable(8) %this) unnamed_addr #1 comdat align 2 {
entry:
  %this.addr = alloca ptr, align 8
  store ptr %this, ptr %this.addr, align 8
  ret void
}

; Function Attrs: mustprogress nounwind uwtable
define void @_ZN5arrow2io19BufferedInputStreamD1Ev(ptr noundef nonnull align 8 dereferenceable(32) %this) unnamed_addr #1 align 2 {
entry:
  %this.addr = alloca ptr, align 8
  store ptr %this, ptr %this.addr, align 8
  %this1 = load ptr, ptr %this.addr, align 8
  call void @_ZN5arrow2io19BufferedInputStreamD2Ev(ptr noundef nonnull align 8 dereferenceable(32) %this1, ptr noundef @_ZTTN5arrow2io19BufferedInputStreamE) #13
  call void @_ZN5arrow2io8ReadableD2Ev(ptr noundef nonnull align 8 dereferenceable(8) %this1) #13
  %0 = getelementptr inbounds i8, ptr %this1, i64 32
  call void @_ZN5arrow2io13FileInterfaceD2Ev(ptr noundef nonnull align 8 dereferenceable(28) %0) #13
  ret void
}

; Function Attrs: nounwind uwtable
define void @_ZTv0_n24_N5arrow2io19BufferedInputStreamD1Ev(ptr noundef %this) unnamed_addr #7 align 2 {
entry:
  %this.addr = alloca ptr, align 8
  store ptr %this, ptr %this.addr, align 8
  %this1 = load ptr, ptr %this.addr, align 8
  %0 = load ptr, ptr %this1, align 8
  %1 = getelementptr inbounds i8, ptr %0, i64 -24
  %2 = load i64, ptr %1, align 8
  %3 = getelementptr inbounds i8, ptr %this1, i64 %2
  tail call void @_ZN5arrow2io19BufferedInputStreamD1Ev(ptr noundef nonnull align 8 dereferenceable(32) %3) #13
  ret void
}